; Function Attrs: nounwind uwtable
define internal fastcc noundef ptr @_readAlterSeqStmt() unnamed_addr #0 {
  %1 = alloca i32, align 4
  %2 = tail call noundef ptr @palloc0(i64 noundef 32) #10
  store i32 189, ptr %2, align 4
  call void @llvm.lifetime.start.p0(i64 4, ptr nonnull %1) #10
  %3 = call ptr @pg_strtok(ptr noundef nonnull %1) #10
  %4 = call ptr @nodeRead(ptr noundef null, i32 noundef 0) #10
  %5 = getelementptr inbounds nuw i8, ptr %2, i64 8
  store ptr %4, ptr %5, align 8
  %6 = call ptr @pg_strtok(ptr noundef nonnull %1) #10
  %7 = call ptr @nodeRead(ptr noundef null, i32 noundef 0) #10
  %8 = getelementptr inbounds nuw i8, ptr %2, i64 16
  store ptr %7, ptr %8, align 8
  %9 = call ptr @pg_strtok(ptr noundef nonnull %1) #10
  %10 = call ptr @pg_strtok(ptr noundef nonnull %1) #10
  %11 = load i8, ptr %10, align 1
  %12 = icmp eq i8 %11, 116
  %13 = getelementptr inbounds nuw i8, ptr %2, i64 24
  %14 = zext i1 %12 to i8
  store i8 %14, ptr %13, align 8
  %15 = call ptr @pg_strtok(ptr noundef nonnull %1) #10
  %16 = call ptr @pg_strtok(ptr noundef nonnull %1) #10
  %17 = load i8, ptr %16, align 1
  %18 = icmp eq i8 %17, 116
  %19 = getelementptr inbounds nuw i8, ptr %2, i64 25
  %20 = zext i1 %18 to i8
  store i8 %20, ptr %19, align 1
  call void @llvm.lifetime.end.p0(i64 4, ptr nonnull %1) #10
  ret ptr %2
}